(dp1
<<<<<<< HEAD
(S'test'
S'pending'
=======
(Vtest
S'success'
>>>>>>> 4f6bd53db96ef6b346bf2e3bb76b9a01e6ada01e
tp2
ccopy_reg
_reconstructor
p3
(clibs.counter
TimebaseAverageWindowCounter
p4
c__builtin__
object
p5
NtRp6
(dp7
S'_first_data_time'
p8
<<<<<<< HEAD
F1483086317.8435719
=======
F1482313325.6770051
>>>>>>> 4f6bd53db96ef6b346bf2e3bb76b9a01e6ada01e
sS'window_size'
p9
I0
sS'times'
p10
ccollections
deque
p11
((lp12
<<<<<<< HEAD
F1483086317.8435719
aF1483421669.516818
aF1483428806.0068631
aF1483429997.470408
=======
F1482313325.6770051
aF1482313633.6987
aF1482390808.3597
aF1482393032.905164
aF1482394792.365495
aF1482395098.1234269
aF1482395829.1730101
aF1482396173.090297
>>>>>>> 4f6bd53db96ef6b346bf2e3bb76b9a01e6ada01e
aI600
tRp13
sS'window_interval'
p14
I144
sS'values'
p15
g11
((lp16
I1
<<<<<<< HEAD
aI1
aI1
aI1
=======
aI2
aI3
aI1
aI1
aI1
aI1
aI2
>>>>>>> 4f6bd53db96ef6b346bf2e3bb76b9a01e6ada01e
aI600
tRp17
sS'cache_value'
p18
<<<<<<< HEAD
I1
=======
I37
>>>>>>> 4f6bd53db96ef6b346bf2e3bb76b9a01e6ada01e
sS'max_window_size'
p19
I600
sS'cache_start'
p20
<<<<<<< HEAD
F1483430431.0270541
sbs(Vtest
S'success'
=======
F1482398229.6538379
sbs(S'test'
S'pending'
>>>>>>> 4f6bd53db96ef6b346bf2e3bb76b9a01e6ada01e
tp21
g3
(g4
g5
NtRp22
(dp23
g8
<<<<<<< HEAD
F1483428451.5877471
=======
F1482313632.966459
>>>>>>> 4f6bd53db96ef6b346bf2e3bb76b9a01e6ada01e
sg9
I0
sg10
g11
((lp24
<<<<<<< HEAD
F1483428451.5877471
=======
F1482313632.966459
aF1482313854.366416
aF1482390805.515202
aF1482393026.6623311
aF1482394790.2273719
aF1482395096.8874691
aF1482396163.4002149
>>>>>>> 4f6bd53db96ef6b346bf2e3bb76b9a01e6ada01e
aI600
tRp25
sg14
I144
sg15
g11
((lp26
<<<<<<< HEAD
I1
aI600
tRp27
sg18
I1
sg19
I600
sg20
F1483429278.3663321
=======
I2
aI1
aI3
aI1
aI1
aI1
aI2
aI600
tRp27
sg18
I769
sg19
I600
sg20
F1482398229.6694131
>>>>>>> 4f6bd53db96ef6b346bf2e3bb76b9a01e6ada01e
sbs.