(dp1
(S'test'
S'pending'
tp2
ccopy_reg
_reconstructor
p3
(clibs.counter
TimebaseAverageWindowCounter
p4
c__builtin__
object
p5
NtRp6
(dp7
S'_first_data_time'
p8
F1483505712.5182049
sS'window_size'
p9
I0
sS'times'
p10
ccollections
deque
p11
((lp12
F1483505712.5182049
aF1483505939.6264019
aF1483508228.5159459
aF1483508289.0767479
aF1483508590.8128181
aF1483508653.04759
aF1483510407.6349859
aF1483510938.7614031
aF1483510999.0089619
aI60
tRp13
sS'window_interval'
p14
I60
sS'values'
p15
g11
((lp16
I128
aI607
aI642
aI32
aI820
aI233
aI157
aI740
aI236
aI60
tRp17
sS'cache_value'
p18
I612
sS'max_window_size'
p19
I60
sS'cache_start'
p20
F1483511641.5252571
sbs(Vtest
S'success'
tp21
g3
(g4
g5
NtRp22
(dp23
g8
F1483505720.3352721
sg9
I0
sg10
g11
((lp24
F1483505720.3352721
aF1483505947.072212
aF1483508236.718117
aF1483508297.0375941
aF1483508598.333019
aF1483508658.4307001
aF1483510417.1803939
aF1483510946.2675841
aF1483511006.585283
aI60
tRp25
sg14
I60
sg15
g11
((lp26
I1
aI28
aI46
aI1
aI41
aI4
aI2
aI36
aI24
aI60
tRp27
sg18
I34
sg19
I60
sg20
F1483511649.448997
sbs.